; Function Attrs: mustprogress uwtable
define dso_local void @_ZN4Luau19ConstraintGenerator21recordInferredBindingEPNS_8AstLocalEPKNS_4TypeE(ptr noundef nonnull align 8 dereferenceable(472) %0, ptr noundef %1, ptr noundef %2) local_unnamed_addr #5 align 2 {
  %4 = alloca %"struct.Luau::Symbol", align 8
  %5 = getelementptr inbounds nuw i8, ptr %0, i64 72
  call void @llvm.lifetime.start.p0(i64 16, ptr nonnull %4) #28
  store ptr %1, ptr %4, align 8, !tbaa !725
  %6 = getelementptr inbounds nuw i8, ptr %4, i64 8
  store ptr null, ptr %6, align 8, !tbaa !536
  %7 = call noundef ptr @_ZNK4Luau6detail14DenseHashTableINS_6SymbolESt4pairIS2_NS_19ConstraintGenerator15InferredBindingEES3_IKS2_S5_ENS0_16ItemInterfaceMapIS2_S5_EESt4hashIS2_ESt8equal_toIS2_EE4findERS7_(ptr noundef nonnull align 8 dereferenceable(48) %5, ptr noundef nonnull align 8 dereferenceable(16) %4)
  %.not.i = icmp eq ptr %7, null
  call void @llvm.lifetime.end.p0(i64 16, ptr nonnull %4) #28
  br i1 %.not.i, label %10, label %8

8:                                                ; preds = %3
  %9 = getelementptr inbounds nuw i8, ptr %7, i64 40
  call void @_ZN4Luau7TypeIds6insertEPKNS_4TypeE(ptr noundef nonnull align 8 dereferenceable(72) %9, ptr noundef %2)
  br label %10

10:                                               ; preds = %8, %3
  ret void
}